target datalayout = "e-m:e-p270:32:32-p271:32:32-p272:64:64-i64:64-i128:128-f80:128-n8:16:32:64-S128"
target triple = "x86_64-pc-linux-gnu"

@proto_register_uaudp.ett = internal global [2 x ptr] [ptr @ett_uaudp, ptr @ett_uaudp_tlv], align 16
@.str.51 = private unnamed_addr constant [30 x i8] c"UA/UDP Encapsulation Protocol\00", align 1
@.str.52 = private unnamed_addr constant [6 x i8] c"UAUDP\00", align 1
@.str.53 = private unnamed_addr constant [6 x i8] c"uaudp\00", align 1
@proto_uaudp = internal global i32 0, align 4
@uaudp_handle = internal global ptr null, align 8
@.str.54 = private unnamed_addr constant [10 x i8] c"system_ip\00", align 1
@.str.55 = private unnamed_addr constant [34 x i8] c"Call Server IP Address (optional)\00", align 1
@.str.56 = private unnamed_addr constant [105 x i8] c"IPv4 (or IPv6) address of the call server. (Used only in case of identical source and destination ports)\00", align 1
@pref_sys_ip_s = internal global ptr @.str.80, align 8

; Function Attrs: null_pointer_is_valid sspstrong uwtable
define hidden void @proto_register_uaudp() #1 {
  %1 = alloca ptr, align 8
  %2 = alloca ptr, align 8
  call void @llvm.lifetime.start.p0(i64 8, ptr %1) #5
  call void @llvm.lifetime.start.p0(i64 8, ptr %2) #5
  %3 = call i32 @proto_register_protocol(ptr noundef @.str.51, ptr noundef @.str.52, ptr noundef @.str.53)
  store i32 %3, ptr @proto_uaudp, align 4
  %4 = load i32, ptr @proto_uaudp, align 4
  %5 = call ptr @register_dissector(ptr noundef @.str.53, ptr noundef @dissect_uaudp, i32 noundef %4)
  store ptr %5, ptr @uaudp_handle, align 8
  %6 = load i32, ptr @proto_uaudp, align 4
  call void @proto_register_field_array(i32 noundef %6, ptr noundef @proto_register_uaudp.hf_uaudp, i32 noundef 17)
  call void @proto_register_subtree_array(ptr noundef @proto_register_uaudp.ett, i32 noundef 2)
  %7 = load i32, ptr @proto_uaudp, align 4
  %8 = call ptr @expert_register_protocol(i32 noundef %7)
  store ptr %8, ptr %2, align 8
  %9 = load ptr, ptr %2, align 8
  call void @expert_register_field_array(ptr noundef %9, ptr noundef @proto_register_uaudp.ei, i32 noundef 1)
  %10 = load i32, ptr @proto_uaudp, align 4
  %11 = call ptr @prefs_register_protocol(i32 noundef %10, ptr noundef @apply_uaudp_prefs)
  store ptr %11, ptr %1, align 8
  %12 = load ptr, ptr %1, align 8
  call void @prefs_register_string_preference(ptr noundef %12, ptr noundef @.str.54, ptr noundef @.str.55, ptr noundef @.str.56, ptr noundef @pref_sys_ip_s)
  call void @llvm.lifetime.end.p0(i64 8, ptr %2) #5
  call void @llvm.lifetime.end.p0(i64 8, ptr %1) #5
  ret void
}