; Function Attrs: null_pointer_is_valid sspstrong uwtable
define hidden void @proto_register_uaudp() local_unnamed_addr #1 {
  %1 = tail call i32 @proto_register_protocol(ptr noundef nonnull @.str.51, ptr noundef nonnull @.str.52, ptr noundef nonnull @.str.53)
  store i32 %1, ptr @proto_uaudp, align 4
  %2 = tail call ptr @register_dissector(ptr noundef nonnull @.str.53, ptr noundef nonnull @dissect_uaudp, i32 noundef %1)
  store ptr %2, ptr @uaudp_handle, align 8
  %3 = load i32, ptr @proto_uaudp, align 4
  tail call void @proto_register_field_array(i32 noundef %3, ptr noundef nonnull @proto_register_uaudp.hf_uaudp, i32 noundef 17)
  tail call void @proto_register_subtree_array(ptr noundef nonnull @proto_register_uaudp.ett, i32 noundef 2)
  %4 = load i32, ptr @proto_uaudp, align 4
  %5 = tail call ptr @expert_register_protocol(i32 noundef %4)
  tail call void @expert_register_field_array(ptr noundef %5, ptr noundef nonnull @proto_register_uaudp.ei, i32 noundef 1)
  %6 = load i32, ptr @proto_uaudp, align 4
  %7 = tail call ptr @prefs_register_protocol(i32 noundef %6, ptr noundef nonnull @apply_uaudp_prefs)
  tail call void @prefs_register_string_preference(ptr noundef %7, ptr noundef nonnull @.str.54, ptr noundef nonnull @.str.55, ptr noundef nonnull @.str.56, ptr noundef nonnull @pref_sys_ip_s)
  ret void
}